target datalayout = "e-m:e-p270:32:32-p271:32:32-p272:64:64-i64:64-i128:128-f80:128-n8:16:32:64-S128"
target triple = "x86_64-pc-linux-gnu"

%struct.XLogCtlData = type { %struct.XLogCtlInsert, %struct.XLogwrtRqst, i64, %struct.FullTransactionId, i64, i64, i64, %struct.pg_atomic_uint64, i64, i64, %struct.pg_atomic_uint64, %struct.pg_atomic_uint64, %struct.pg_atomic_uint64, i64, ptr, ptr, i32, i32, i32, i32, i8, i8, i64, i64, %struct.CheckPoint, i64, i8 }
%struct.XLogCtlInsert = type { i8, i64, i64, [128 x i8], i64, i8, i32, i64, ptr }
%struct.XLogwrtRqst = type { i64, i64 }
%struct.FullTransactionId = type { i64 }
%struct.pg_atomic_uint64 = type { i64 }
%struct.CheckPoint = type { i64, i32, i32, i8, i32, %struct.FullTransactionId, i32, i32, i32, i32, i32, i32, i32, i64, i32, i32, i32 }

@wal_segment_size = dso_local global i32 16777216, align 4
@XLogCtl = internal global ptr null, align 8
@.str.14 = private unnamed_addr constant [7 x i8] c"xlog.c\00", align 1
@UsableBytesInSegment = internal global i32 0, align 4
@__func__.ReserveXLogSwitch = private unnamed_addr constant [18 x i8] c"ReserveXLogSwitch\00", align 1

; Function Attrs: nounwind uwtable
define internal i64 @XLogRecPtrToBytePos(i64 noundef %0) #0 {
  %2 = alloca i64, align 8
  %3 = alloca i64, align 8
  %4 = alloca i32, align 4
  %5 = alloca i32, align 4
  %6 = alloca i64, align 8
  store i64 %0, ptr %2, align 8
  call void @llvm.lifetime.start.p0(i64 8, ptr %3) #16
  call void @llvm.lifetime.start.p0(i64 4, ptr %4) #16
  call void @llvm.lifetime.start.p0(i64 4, ptr %5) #16
  call void @llvm.lifetime.start.p0(i64 8, ptr %6) #16
  %7 = load i64, ptr %2, align 8
  %8 = load i32, ptr @wal_segment_size, align 4
  %9 = sext i32 %8 to i64
  %10 = udiv i64 %7, %9
  store i64 %10, ptr %3, align 8
  %11 = load i64, ptr %2, align 8
  %12 = load i32, ptr @wal_segment_size, align 4
  %13 = sub i32 %12, 1
  %14 = sext i32 %13 to i64
  %15 = and i64 %11, %14
  %16 = udiv i64 %15, 8192
  %17 = trunc i64 %16 to i32
  store i32 %17, ptr %4, align 4
  %18 = load i64, ptr %2, align 8
  %19 = urem i64 %18, 8192
  %20 = trunc i64 %19 to i32
  store i32 %20, ptr %5, align 4
  %21 = load i32, ptr %4, align 4
  %22 = icmp eq i32 %21, 0
  br i1 %22, label %23, label %37

23:                                               ; preds = %1
  %24 = load i64, ptr %3, align 8
  %25 = load i32, ptr @UsableBytesInSegment, align 4
  %26 = sext i32 %25 to i64
  %27 = mul i64 %24, %26
  store i64 %27, ptr %6, align 8
  %28 = load i32, ptr %5, align 4
  %29 = icmp ugt i32 %28, 0
  br i1 %29, label %30, label %36

30:                                               ; preds = %23
  %31 = load i32, ptr %5, align 4
  %32 = zext i32 %31 to i64
  %33 = sub i64 %32, 40
  %34 = load i64, ptr %6, align 8
  %35 = add i64 %34, %33
  store i64 %35, ptr %6, align 8
  br label %36

36:                                               ; preds = %30, %23
  br label %57

37:                                               ; preds = %1
  %38 = load i64, ptr %3, align 8
  %39 = load i32, ptr @UsableBytesInSegment, align 4
  %40 = sext i32 %39 to i64
  %41 = mul i64 %38, %40
  %42 = add i64 %41, 8152
  %43 = load i32, ptr %4, align 4
  %44 = sub i32 %43, 1
  %45 = zext i32 %44 to i64
  %46 = mul i64 %45, 8168
  %47 = add i64 %42, %46
  store i64 %47, ptr %6, align 8
  %48 = load i32, ptr %5, align 4
  %49 = icmp ugt i32 %48, 0
  br i1 %49, label %50, label %56

50:                                               ; preds = %37
  %51 = load i32, ptr %5, align 4
  %52 = zext i32 %51 to i64
  %53 = sub i64 %52, 24
  %54 = load i64, ptr %6, align 8
  %55 = add i64 %54, %53
  store i64 %55, ptr %6, align 8
  br label %56

56:                                               ; preds = %50, %37
  br label %57

57:                                               ; preds = %56, %36
  %58 = load i64, ptr %6, align 8
  call void @llvm.lifetime.end.p0(i64 8, ptr %6) #16
  call void @llvm.lifetime.end.p0(i64 4, ptr %5) #16
  call void @llvm.lifetime.end.p0(i64 4, ptr %4) #16
  call void @llvm.lifetime.end.p0(i64 8, ptr %3) #16
  ret i64 %58
}

; Function Attrs: nounwind uwtable
define internal i64 @XLogBytePosToRecPtr(i64 noundef %0) #0 {
  %2 = alloca i64, align 8
  %3 = alloca i64, align 8
  %4 = alloca i64, align 8
  %5 = alloca i64, align 8
  %6 = alloca i32, align 4
  %7 = alloca i64, align 8
  store i64 %0, ptr %2, align 8
  call void @llvm.lifetime.start.p0(i64 8, ptr %3) #16
  call void @llvm.lifetime.start.p0(i64 8, ptr %4) #16
  call void @llvm.lifetime.start.p0(i64 8, ptr %5) #16
  call void @llvm.lifetime.start.p0(i64 4, ptr %6) #16
  call void @llvm.lifetime.start.p0(i64 8, ptr %7) #16
  %8 = load i64, ptr %2, align 8
  %9 = load i32, ptr @UsableBytesInSegment, align 4
  %10 = sext i32 %9 to i64
  %11 = udiv i64 %8, %10
  store i64 %11, ptr %3, align 8
  %12 = load i64, ptr %2, align 8
  %13 = load i32, ptr @UsableBytesInSegment, align 4
  %14 = sext i32 %13 to i64
  %15 = urem i64 %12, %14
  store i64 %15, ptr %5, align 8
  %16 = load i64, ptr %5, align 8
  %17 = icmp ult i64 %16, 8152
  br i1 %17, label %18, label %22

18:                                               ; preds = %1
  %19 = load i64, ptr %5, align 8
  %20 = add i64 %19, 40
  %21 = trunc i64 %20 to i32
  store i32 %21, ptr %6, align 4
  br label %38

22:                                               ; preds = %1
  store i32 8192, ptr %6, align 4
  %23 = load i64, ptr %5, align 8
  %24 = sub i64 %23, 8152
  store i64 %24, ptr %5, align 8
  %25 = load i64, ptr %5, align 8
  %26 = udiv i64 %25, 8168
  store i64 %26, ptr %4, align 8
  %27 = load i64, ptr %5, align 8
  %28 = urem i64 %27, 8168
  store i64 %28, ptr %5, align 8
  %29 = load i64, ptr %4, align 8
  %30 = mul i64 %29, 8192
  %31 = load i64, ptr %5, align 8
  %32 = add i64 %30, %31
  %33 = add i64 %32, 24
  %34 = load i32, ptr %6, align 4
  %35 = zext i32 %34 to i64
  %36 = add i64 %35, %33
  %37 = trunc i64 %36 to i32
  store i32 %37, ptr %6, align 4
  br label %38

38:                                               ; preds = %22, %18
  %39 = load i64, ptr %3, align 8
  %40 = load i32, ptr @wal_segment_size, align 4
  %41 = sext i32 %40 to i64
  %42 = mul i64 %39, %41
  %43 = load i32, ptr %6, align 4
  %44 = zext i32 %43 to i64
  %45 = add i64 %42, %44
  store i64 %45, ptr %7, align 8
  %46 = load i64, ptr %7, align 8
  call void @llvm.lifetime.end.p0(i64 8, ptr %7) #16
  call void @llvm.lifetime.end.p0(i64 4, ptr %6) #16
  call void @llvm.lifetime.end.p0(i64 8, ptr %5) #16
  call void @llvm.lifetime.end.p0(i64 8, ptr %4) #16
  call void @llvm.lifetime.end.p0(i64 8, ptr %3) #16
  ret i64 %46
}

; Function Attrs: nounwind uwtable
define internal i64 @XLogBytePosToEndRecPtr(i64 noundef %0) #0 {
  %2 = alloca i64, align 8
  %3 = alloca i64, align 8
  %4 = alloca i64, align 8
  %5 = alloca i64, align 8
  %6 = alloca i32, align 4
  %7 = alloca i64, align 8
  store i64 %0, ptr %2, align 8
  call void @llvm.lifetime.start.p0(i64 8, ptr %3) #16
  call void @llvm.lifetime.start.p0(i64 8, ptr %4) #16
  call void @llvm.lifetime.start.p0(i64 8, ptr %5) #16
  call void @llvm.lifetime.start.p0(i64 4, ptr %6) #16
  call void @llvm.lifetime.start.p0(i64 8, ptr %7) #16
  %8 = load i64, ptr %2, align 8
  %9 = load i32, ptr @UsableBytesInSegment, align 4
  %10 = sext i32 %9 to i64
  %11 = udiv i64 %8, %10
  store i64 %11, ptr %3, align 8
  %12 = load i64, ptr %2, align 8
  %13 = load i32, ptr @UsableBytesInSegment, align 4
  %14 = sext i32 %13 to i64
  %15 = urem i64 %12, %14
  store i64 %15, ptr %5, align 8
  %16 = load i64, ptr %5, align 8
  %17 = icmp ult i64 %16, 8152
  br i1 %17, label %18, label %27

18:                                               ; preds = %1
  %19 = load i64, ptr %5, align 8
  %20 = icmp eq i64 %19, 0
  br i1 %20, label %21, label %22

21:                                               ; preds = %18
  store i32 0, ptr %6, align 4
  br label %26

22:                                               ; preds = %18
  %23 = load i64, ptr %5, align 8
  %24 = add i64 %23, 40
  %25 = trunc i64 %24 to i32
  store i32 %25, ptr %6, align 4
  br label %26

26:                                               ; preds = %22, %21
  br label %56

27:                                               ; preds = %1
  store i32 8192, ptr %6, align 4
  %28 = load i64, ptr %5, align 8
  %29 = sub i64 %28, 8152
  store i64 %29, ptr %5, align 8
  %30 = load i64, ptr %5, align 8
  %31 = udiv i64 %30, 8168
  store i64 %31, ptr %4, align 8
  %32 = load i64, ptr %5, align 8
  %33 = urem i64 %32, 8168
  store i64 %33, ptr %5, align 8
  %34 = load i64, ptr %5, align 8
  %35 = icmp eq i64 %34, 0
  br i1 %35, label %36, label %45

36:                                               ; preds = %27
  %37 = load i64, ptr %4, align 8
  %38 = mul i64 %37, 8192
  %39 = load i64, ptr %5, align 8
  %40 = add i64 %38, %39
  %41 = load i32, ptr %6, align 4
  %42 = zext i32 %41 to i64
  %43 = add i64 %42, %40
  %44 = trunc i64 %43 to i32
  store i32 %44, ptr %6, align 4
  br label %55

45:                                               ; preds = %27
  %46 = load i64, ptr %4, align 8
  %47 = mul i64 %46, 8192
  %48 = load i64, ptr %5, align 8
  %49 = add i64 %47, %48
  %50 = add i64 %49, 24
  %51 = load i32, ptr %6, align 4
  %52 = zext i32 %51 to i64
  %53 = add i64 %52, %50
  %54 = trunc i64 %53 to i32
  store i32 %54, ptr %6, align 4
  br label %55

55:                                               ; preds = %45, %36
  br label %56

56:                                               ; preds = %55, %26
  %57 = load i64, ptr %3, align 8
  %58 = load i32, ptr @wal_segment_size, align 4
  %59 = sext i32 %58 to i64
  %60 = mul i64 %57, %59
  %61 = load i32, ptr %6, align 4
  %62 = zext i32 %61 to i64
  %63 = add i64 %60, %62
  store i64 %63, ptr %7, align 8
  %64 = load i64, ptr %7, align 8
  call void @llvm.lifetime.end.p0(i64 8, ptr %7) #16
  call void @llvm.lifetime.end.p0(i64 4, ptr %6) #16
  call void @llvm.lifetime.end.p0(i64 8, ptr %5) #16
  call void @llvm.lifetime.end.p0(i64 8, ptr %4) #16
  call void @llvm.lifetime.end.p0(i64 8, ptr %3) #16
  ret i64 %64
}

; Function Attrs: inlinehint nounwind uwtable
define internal i32 @tas(ptr noundef %0) #6 {
  %2 = alloca ptr, align 8
  %3 = alloca i8, align 1
  store ptr %0, ptr %2, align 8
  call void @llvm.lifetime.start.p0(i64 1, ptr %3) #16
  store i8 1, ptr %3, align 1
  %4 = load i8, ptr %3, align 1
  %5 = load ptr, ptr %2, align 8
  %6 = call i8 asm sideeffect "\09lock\09\09\09\0A\09xchgb\09$0,$1\09\0A", "=q,=*m,0,*m,~{memory},~{cc},~{dirflag},~{fpsr},~{flags}"(ptr elementtype(i8) %5, i8 %4, ptr elementtype(i8) %5) #16, !srcloc !18
  store i8 %6, ptr %3, align 1
  %7 = load i8, ptr %3, align 1
  %8 = zext i8 %7 to i32
  call void @llvm.lifetime.end.p0(i64 1, ptr %3) #16
  ret i32 %8
}

; Function Attrs: nounwind uwtable
define internal zeroext i1 @ReserveXLogSwitch(ptr noundef %0, ptr noundef %1, ptr noundef %2) #0 {
  %4 = alloca i1, align 1
  %5 = alloca ptr, align 8
  %6 = alloca ptr, align 8
  %7 = alloca ptr, align 8
  %8 = alloca ptr, align 8
  %9 = alloca i64, align 8
  %10 = alloca i64, align 8
  %11 = alloca i64, align 8
  %12 = alloca i32, align 4
  %13 = alloca i64, align 8
  %14 = alloca i32, align 4
  %15 = alloca i32, align 4
  store ptr %0, ptr %5, align 8
  store ptr %1, ptr %6, align 8
  store ptr %2, ptr %7, align 8
  call void @llvm.lifetime.start.p0(i64 8, ptr %8) #16
  %16 = load ptr, ptr @XLogCtl, align 8
  %17 = getelementptr inbounds nuw %struct.XLogCtlData, ptr %16, i32 0, i32 0
  store ptr %17, ptr %8, align 8
  call void @llvm.lifetime.start.p0(i64 8, ptr %9) #16
  call void @llvm.lifetime.start.p0(i64 8, ptr %10) #16
  call void @llvm.lifetime.start.p0(i64 8, ptr %11) #16
  call void @llvm.lifetime.start.p0(i64 4, ptr %12) #16
  store i32 24, ptr %12, align 4
  call void @llvm.lifetime.start.p0(i64 8, ptr %13) #16
  call void @llvm.lifetime.start.p0(i64 4, ptr %14) #16
  %18 = load ptr, ptr %8, align 8
  %19 = getelementptr inbounds nuw %struct.XLogCtlInsert, ptr %18, i32 0, i32 0
  %20 = call i32 @tas(ptr noundef %19)
  %21 = icmp ne i32 %20, 0
  br i1 %21, label %22, label %26

22:                                               ; preds = %3
  %23 = load ptr, ptr %8, align 8
  %24 = getelementptr inbounds nuw %struct.XLogCtlInsert, ptr %23, i32 0, i32 0
  %25 = call i32 @s_lock(ptr noundef %24, ptr noundef @.str.14, i32 noundef 1180, ptr noundef @__func__.ReserveXLogSwitch)
  br label %27

26:                                               ; preds = %3
  br label %27

27:                                               ; preds = %26, %22
  %28 = load ptr, ptr %8, align 8
  %29 = getelementptr inbounds nuw %struct.XLogCtlInsert, ptr %28, i32 0, i32 1
  %30 = load i64, ptr %29, align 8
  store i64 %30, ptr %9, align 8
  %31 = load i64, ptr %9, align 8
  %32 = call i64 @XLogBytePosToEndRecPtr(i64 noundef %31)
  store i64 %32, ptr %13, align 8
  %33 = load i64, ptr %13, align 8
  %34 = load i32, ptr @wal_segment_size, align 4
  %35 = sub i32 %34, 1
  %36 = sext i32 %35 to i64
  %37 = and i64 %33, %36
  %38 = icmp eq i64 %37, 0
  br i1 %38, label %39, label %48

39:                                               ; preds = %27
  br label %40

40:                                               ; preds = %39
  call void asm sideeffect "", "~{memory},~{dirflag},~{fpsr},~{flags}"() #16, !srcloc !12
  %41 = load ptr, ptr %8, align 8
  %42 = getelementptr inbounds nuw %struct.XLogCtlInsert, ptr %41, i32 0, i32 0
  store i8 0, ptr %42, align 8
  br label %43

43:                                               ; preds = %40
  br label %44

44:                                               ; preds = %43
  %45 = load i64, ptr %13, align 8
  %46 = load ptr, ptr %5, align 8
  store i64 %45, ptr %46, align 8
  %47 = load ptr, ptr %6, align 8
  store i64 %45, ptr %47, align 8
  store i1 false, ptr %4, align 1
  store i32 1, ptr %15, align 4
  br label %99

48:                                               ; preds = %27
  %49 = load i64, ptr %9, align 8
  %50 = load i32, ptr %12, align 4
  %51 = zext i32 %50 to i64
  %52 = add i64 %49, %51
  store i64 %52, ptr %10, align 8
  %53 = load ptr, ptr %8, align 8
  %54 = getelementptr inbounds nuw %struct.XLogCtlInsert, ptr %53, i32 0, i32 2
  %55 = load i64, ptr %54, align 8
  store i64 %55, ptr %11, align 8
  %56 = load i64, ptr %9, align 8
  %57 = call i64 @XLogBytePosToRecPtr(i64 noundef %56)
  %58 = load ptr, ptr %5, align 8
  store i64 %57, ptr %58, align 8
  %59 = load i64, ptr %10, align 8
  %60 = call i64 @XLogBytePosToEndRecPtr(i64 noundef %59)
  %61 = load ptr, ptr %6, align 8
  store i64 %60, ptr %61, align 8
  %62 = load i32, ptr @wal_segment_size, align 4
  %63 = sext i32 %62 to i64
  %64 = load ptr, ptr %6, align 8
  %65 = load i64, ptr %64, align 8
  %66 = load i32, ptr @wal_segment_size, align 4
  %67 = sub i32 %66, 1
  %68 = sext i32 %67 to i64
  %69 = and i64 %65, %68
  %70 = sub i64 %63, %69
  %71 = trunc i64 %70 to i32
  store i32 %71, ptr %14, align 4
  %72 = load i32, ptr %14, align 4
  %73 = load i32, ptr @wal_segment_size, align 4
  %74 = icmp ne i32 %72, %73
  br i1 %74, label %75, label %84

75:                                               ; preds = %48
  %76 = load i32, ptr %14, align 4
  %77 = zext i32 %76 to i64
  %78 = load ptr, ptr %6, align 8
  %79 = load i64, ptr %78, align 8
  %80 = add i64 %79, %77
  store i64 %80, ptr %78, align 8
  %81 = load ptr, ptr %6, align 8
  %82 = load i64, ptr %81, align 8
  %83 = call i64 @XLogRecPtrToBytePos(i64 noundef %82)
  store i64 %83, ptr %10, align 8
  br label %84

84:                                               ; preds = %75, %48
  %85 = load i64, ptr %10, align 8
  %86 = load ptr, ptr %8, align 8
  %87 = getelementptr inbounds nuw %struct.XLogCtlInsert, ptr %86, i32 0, i32 1
  store i64 %85, ptr %87, align 8
  %88 = load i64, ptr %9, align 8
  %89 = load ptr, ptr %8, align 8
  %90 = getelementptr inbounds nuw %struct.XLogCtlInsert, ptr %89, i32 0, i32 2
  store i64 %88, ptr %90, align 8
  br label %91

91:                                               ; preds = %84
  call void asm sideeffect "", "~{memory},~{dirflag},~{fpsr},~{flags}"() #16, !srcloc !13
  %92 = load ptr, ptr %8, align 8
  %93 = getelementptr inbounds nuw %struct.XLogCtlInsert, ptr %92, i32 0, i32 0
  store i8 0, ptr %93, align 8
  br label %94

94:                                               ; preds = %91
  br label %95

95:                                               ; preds = %94
  %96 = load i64, ptr %11, align 8
  %97 = call i64 @XLogBytePosToRecPtr(i64 noundef %96)
  %98 = load ptr, ptr %7, align 8
  store i64 %97, ptr %98, align 8
  store i1 true, ptr %4, align 1
  store i32 1, ptr %15, align 4
  br label %99

99:                                               ; preds = %95, %44
  call void @llvm.lifetime.end.p0(i64 4, ptr %14) #16
  call void @llvm.lifetime.end.p0(i64 8, ptr %13) #16
  call void @llvm.lifetime.end.p0(i64 4, ptr %12) #16
  call void @llvm.lifetime.end.p0(i64 8, ptr %11) #16
  call void @llvm.lifetime.end.p0(i64 8, ptr %10) #16
  call void @llvm.lifetime.end.p0(i64 8, ptr %9) #16
  call void @llvm.lifetime.end.p0(i64 8, ptr %8) #16
  %100 = load i1, ptr %4, align 1
  ret i1 %100
}