; Function Attrs: nounwind uwtable
define internal fastcc noundef zeroext i1 @ReserveXLogSwitch(ptr noundef nonnull writeonly captures(none) initializes((0, 8)) %0, ptr noundef nonnull writeonly captures(none) initializes((0, 8)) %1, ptr noundef writeonly captures(none) %2) unnamed_addr #0 {
  %4 = load ptr, ptr @XLogCtl, align 8
  %5 = tail call i8 asm sideeffect "\09lock\09\09\09\0A\09xchgb\09$0,$1\09\0A", "=q,=*m,0,*m,~{memory},~{cc},~{dirflag},~{fpsr},~{flags}"(ptr elementtype(i8) %4, i8 1, ptr elementtype(i8) %4) #26, !srcloc !10
  %.not = icmp eq i8 %5, 0
  br i1 %.not, label %8, label %6

6:                                                ; preds = %3
  %7 = tail call i32 @s_lock(ptr noundef %4, ptr noundef nonnull @.str.14, i32 noundef 1180, ptr noundef nonnull @__func__.ReserveXLogSwitch) #26
  br label %8

8:                                                ; preds = %3, %6
  %9 = getelementptr inbounds nuw i8, ptr %4, i64 8
  %10 = load i64, ptr %9, align 8
  %11 = load i32, ptr @UsableBytesInSegment, align 4
  %12 = sext i32 %11 to i64
  %13 = urem i64 %10, %12
  %14 = udiv i64 %10, %12
  %15 = icmp ult i64 %13, 8152
  br i1 %15, label %16, label %19

16:                                               ; preds = %8
  %17 = icmp eq i64 %13, 0
  %18 = add nuw nsw i64 %13, 40
  %spec.select.i = select i1 %17, i64 0, i64 %18
  br label %XLogBytePosToEndRecPtr.exit

19:                                               ; preds = %8
  %20 = add i64 %13, -8152
  %21 = udiv i64 %20, 8168
  %22 = urem i64 %20, 8168
  %23 = icmp eq i64 %22, 0
  %24 = shl i64 %21, 13
  br i1 %23, label %25, label %27

25:                                               ; preds = %19
  %26 = add i64 %24, 8192
  br label %XLogBytePosToEndRecPtr.exit

27:                                               ; preds = %19
  %28 = add nuw nsw i64 %22, 8216
  %29 = add i64 %28, %24
  br label %XLogBytePosToEndRecPtr.exit

XLogBytePosToEndRecPtr.exit:                      ; preds = %16, %25, %27
  %.0.i = phi i64 [ %26, %25 ], [ %29, %27 ], [ %spec.select.i, %16 ]
  %30 = load i32, ptr @wal_segment_size, align 4
  %31 = sext i32 %30 to i64
  %32 = mul i64 %14, %31
  %33 = and i64 %.0.i, 4294967295
  %34 = add i64 %32, %33
  %35 = add i32 %30, -1
  %36 = sext i32 %35 to i64
  %37 = and i64 %34, %36
  %38 = icmp ne i64 %37, 0
  br i1 %38, label %40, label %39

39:                                               ; preds = %XLogBytePosToEndRecPtr.exit
  tail call void asm sideeffect "", "~{memory},~{dirflag},~{fpsr},~{flags}"() #26, !srcloc !19
  store i8 0, ptr %4, align 8
  store i64 %34, ptr %0, align 8
  store i64 %34, ptr %1, align 8
  br label %124

40:                                               ; preds = %XLogBytePosToEndRecPtr.exit
  %41 = add i64 %10, 24
  %42 = getelementptr inbounds nuw i8, ptr %4, i64 16
  %43 = load i64, ptr %42, align 8
  br i1 %15, label %44, label %46

44:                                               ; preds = %40
  %45 = add nuw nsw i64 %13, 40
  br label %XLogBytePosToRecPtr.exit

46:                                               ; preds = %40
  %47 = add i64 %13, -8152
  %48 = udiv i64 %47, 8168
  %49 = urem i64 %47, 8168
  %50 = shl i64 %48, 13
  %51 = add nuw nsw i64 %49, 8216
  %52 = add i64 %51, %50
  br label %XLogBytePosToRecPtr.exit

XLogBytePosToRecPtr.exit:                         ; preds = %44, %46
  %.0.i31 = phi i64 [ %45, %44 ], [ %52, %46 ]
  %53 = and i64 %.0.i31, 4294967295
  %54 = add i64 %53, %32
  store i64 %54, ptr %0, align 8
  %55 = urem i64 %41, %12
  %56 = udiv i64 %41, %12
  %57 = icmp ult i64 %55, 8152
  br i1 %57, label %58, label %61

58:                                               ; preds = %XLogBytePosToRecPtr.exit
  %59 = icmp eq i64 %55, 0
  %60 = add nuw nsw i64 %55, 40
  %spec.select.i33 = select i1 %59, i64 0, i64 %60
  br label %XLogBytePosToEndRecPtr.exit34

61:                                               ; preds = %XLogBytePosToRecPtr.exit
  %62 = add i64 %55, -8152
  %63 = udiv i64 %62, 8168
  %64 = urem i64 %62, 8168
  %65 = icmp eq i64 %64, 0
  %66 = shl i64 %63, 13
  br i1 %65, label %67, label %69

67:                                               ; preds = %61
  %68 = add i64 %66, 8192
  br label %XLogBytePosToEndRecPtr.exit34

69:                                               ; preds = %61
  %70 = add nuw nsw i64 %64, 8216
  %71 = add i64 %70, %66
  br label %XLogBytePosToEndRecPtr.exit34

XLogBytePosToEndRecPtr.exit34:                    ; preds = %58, %67, %69
  %.0.i32 = phi i64 [ %68, %67 ], [ %71, %69 ], [ %spec.select.i33, %58 ]
  %72 = mul i64 %56, %31
  %73 = and i64 %.0.i32, 4294967295
  %74 = add i64 %72, %73
  store i64 %74, ptr %1, align 8
  %75 = trunc i64 %74 to i32
  %76 = and i32 %35, %75
  %.not30 = icmp eq i32 %76, 0
  br i1 %.not30, label %XLogRecPtrToBytePos.exit, label %77

77:                                               ; preds = %XLogBytePosToEndRecPtr.exit34
  %78 = sub i32 %30, %76
  %79 = zext i32 %78 to i64
  %80 = add i64 %74, %79
  store i64 %80, ptr %1, align 8
  %81 = udiv i64 %80, %31
  %82 = and i64 %80, %36
  %83 = trunc i64 %80 to i32
  %84 = and i32 %83, 8191
  %85 = and i64 %82, 35184372080640
  %86 = icmp eq i64 %85, 0
  br i1 %86, label %87, label %93

87:                                               ; preds = %77
  %88 = mul i64 %81, %12
  %.not16.i = icmp eq i32 %84, 0
  br i1 %.not16.i, label %XLogRecPtrToBytePos.exit, label %89

89:                                               ; preds = %87
  %90 = and i64 %80, 8191
  %91 = add nsw i64 %90, -40
  %92 = add i64 %91, %88
  br label %XLogRecPtrToBytePos.exit

93:                                               ; preds = %77
  %94 = lshr i64 %82, 13
  %95 = mul i64 %81, %12
  %96 = add nuw nsw i64 %94, 4294967295
  %97 = and i64 %96, 4294967295
  %98 = mul nuw nsw i64 %97, 8168
  %99 = add nuw nsw i64 %98, 8152
  %100 = add i64 %99, %95
  %.not.i = icmp eq i32 %84, 0
  br i1 %.not.i, label %XLogRecPtrToBytePos.exit, label %101

101:                                              ; preds = %93
  %102 = and i64 %80, 8191
  %103 = add nsw i64 %102, -24
  %104 = add i64 %103, %100
  br label %XLogRecPtrToBytePos.exit

XLogRecPtrToBytePos.exit:                         ; preds = %101, %93, %89, %87, %XLogBytePosToEndRecPtr.exit34
  %.028 = phi i64 [ %41, %XLogBytePosToEndRecPtr.exit34 ], [ %92, %89 ], [ %88, %87 ], [ %104, %101 ], [ %100, %93 ]
  store i64 %.028, ptr %9, align 8
  store i64 %10, ptr %42, align 8
  tail call void asm sideeffect "", "~{memory},~{dirflag},~{fpsr},~{flags}"() #26, !srcloc !20
  store i8 0, ptr %4, align 8
  %105 = load i32, ptr @UsableBytesInSegment, align 4
  %106 = sext i32 %105 to i64
  %107 = urem i64 %43, %106
  %108 = udiv i64 %43, %106
  %109 = icmp ult i64 %107, 8152
  br i1 %109, label %110, label %112

110:                                              ; preds = %XLogRecPtrToBytePos.exit
  %111 = add nuw nsw i64 %107, 40
  br label %XLogBytePosToRecPtr.exit37

112:                                              ; preds = %XLogRecPtrToBytePos.exit
  %113 = add i64 %107, -8152
  %114 = udiv i64 %113, 8168
  %115 = urem i64 %113, 8168
  %116 = shl i64 %114, 13
  %117 = add nuw nsw i64 %115, 8216
  %118 = add i64 %117, %116
  br label %XLogBytePosToRecPtr.exit37

XLogBytePosToRecPtr.exit37:                       ; preds = %110, %112
  %.0.i36 = phi i64 [ %111, %110 ], [ %118, %112 ]
  %119 = load i32, ptr @wal_segment_size, align 4
  %120 = sext i32 %119 to i64
  %121 = mul i64 %108, %120
  %122 = and i64 %.0.i36, 4294967295
  %123 = add i64 %121, %122
  store i64 %123, ptr %2, align 8
  br label %124

124:                                              ; preds = %XLogBytePosToRecPtr.exit37, %39
  ret i1 %38
}